; ModuleID = '20/164.c'
source_filename = "20/164.c"
target datalayout = "e-m:e-p270:32:32-p271:32:32-p272:64:64-i64:64-f80:128-n8:16:32:64-S128"
target triple = "x86_64-pc-linux-gnu"

@.str = private unnamed_addr constant [6 x i8] c"%s %s\00", align 1
@.str.1 = private unnamed_addr constant [4 x i8] c"%s\0A\00", align 1

; Function Attrs: noinline nounwind uwtable
define dso_local void @main() #0 {
  %1 = alloca [13 x i8], align 1
  %2 = alloca [3 x i8], align 1
  %3 = alloca i32, align 4
  %4 = alloca i32, align 4
  %5 = alloca i32, align 4
  %6 = alloca i32, align 4
  br label %7

7:                                                ; preds = %81, %0
  %8 = getelementptr inbounds [13 x i8], [13 x i8]* %1, i64 0, i64 0
  %9 = getelementptr inbounds [3 x i8], [3 x i8]* %2, i64 0, i64 0
  %10 = call i32 (i8*, ...) @__isoc99_scanf(i8* getelementptr inbounds ([6 x i8], [6 x i8]* @.str, i64 0, i64 0), i8* %8, i8* %9)
  %11 = icmp ne i32 %10, -1
  br i1 %11, label %12, label %88

12:                                               ; preds = %7
  %13 = getelementptr inbounds [13 x i8], [13 x i8]* %1, i64 0, i64 0
  %14 = call i64 @strlen(i8* %13) #3
  %15 = trunc i64 %14 to i32
  store i32 %15, i32* %3, align 4
  store i32 0, i32* %6, align 4
  %16 = load i32, i32* %3, align 4
  %17 = sext i32 %16 to i64
  %18 = getelementptr inbounds [13 x i8], [13 x i8]* %1, i64 0, i64 %17
  store i8 97, i8* %18, align 1
  %19 = getelementptr inbounds [3 x i8], [3 x i8]* %2, i64 0, i64 3
  store i8 97, i8* %19, align 1
  store i32 0, i32* %4, align 4
  br label %20

20:                                               ; preds = %40, %12
  %21 = load i32, i32* %4, align 4
  %22 = load i32, i32* %3, align 4
  %23 = sub nsw i32 %22, 1
  %24 = icmp sle i32 %21, %23
  br i1 %24, label %25, label %43

25:                                               ; preds = %20
  %26 = load i32, i32* %4, align 4
  %27 = sext i32 %26 to i64
  %28 = getelementptr inbounds [13 x i8], [13 x i8]* %1, i64 0, i64 %27
  %29 = load i8, i8* %28, align 1
  %30 = sext i8 %29 to i32
  %31 = load i32, i32* %6, align 4
  %32 = sext i32 %31 to i64
  %33 = getelementptr inbounds [13 x i8], [13 x i8]* %1, i64 0, i64 %32
  %34 = load i8, i8* %33, align 1
  %35 = sext i8 %34 to i32
  %36 = icmp sgt i32 %30, %35
  br i1 %36, label %37, label %39

37:                                               ; preds = %25
  %38 = load i32, i32* %4, align 4
  store i32 %38, i32* %6, align 4
  br label %39

39:                                               ; preds = %37, %25
  br label %40

40:                                               ; preds = %39
  %41 = load i32, i32* %4, align 4
  %42 = add nsw i32 %41, 1
  store i32 %42, i32* %4, align 4
  br label %20

43:                                               ; preds = %20
  %44 = load i32, i32* %3, align 4
  store i32 %44, i32* %4, align 4
  br label %45

45:                                               ; preds = %59, %43
  %46 = load i32, i32* %4, align 4
  %47 = load i32, i32* %6, align 4
  %48 = add nsw i32 %47, 1
  %49 = icmp sge i32 %46, %48
  br i1 %49, label %50, label %62

50:                                               ; preds = %45
  %51 = load i32, i32* %4, align 4
  %52 = sext i32 %51 to i64
  %53 = getelementptr inbounds [13 x i8], [13 x i8]* %1, i64 0, i64 %52
  %54 = load i8, i8* %53, align 1
  %55 = load i32, i32* %4, align 4
  %56 = add nsw i32 %55, 3
  %57 = sext i32 %56 to i64
  %58 = getelementptr inbounds [13 x i8], [13 x i8]* %1, i64 0, i64 %57
  store i8 %54, i8* %58, align 1
  br label %59

59:                                               ; preds = %50
  %60 = load i32, i32* %4, align 4
  %61 = add nsw i32 %60, -1
  store i32 %61, i32* %4, align 4
  br label %45

62:                                               ; preds = %45
  %63 = load i32, i32* %6, align 4
  %64 = add nsw i32 %63, 1
  store i32 %64, i32* %4, align 4
  store i32 0, i32* %5, align 4
  br label %65

65:                                               ; preds = %76, %62
  %66 = load i32, i32* %5, align 4
  %67 = icmp sle i32 %66, 2
  br i1 %67, label %68, label %81

68:                                               ; preds = %65
  %69 = load i32, i32* %5, align 4
  %70 = sext i32 %69 to i64
  %71 = getelementptr inbounds [3 x i8], [3 x i8]* %2, i64 0, i64 %70
  %72 = load i8, i8* %71, align 1
  %73 = load i32, i32* %4, align 4
  %74 = sext i32 %73 to i64
  %75 = getelementptr inbounds [13 x i8], [13 x i8]* %1, i64 0, i64 %74
  store i8 %72, i8* %75, align 1
  br label %76

76:                                               ; preds = %68
  %77 = load i32, i32* %4, align 4
  %78 = add nsw i32 %77, 1
  store i32 %78, i32* %4, align 4
  %79 = load i32, i32* %5, align 4
  %80 = add nsw i32 %79, 1
  store i32 %80, i32* %5, align 4
  br label %65

81:                                               ; preds = %65
  %82 = load i32, i32* %3, align 4
  %83 = add nsw i32 %82, 3
  %84 = sext i32 %83 to i64
  %85 = getelementptr inbounds [13 x i8], [13 x i8]* %1, i64 0, i64 %84
  store i8 0, i8* %85, align 1
  %86 = getelementptr inbounds [13 x i8], [13 x i8]* %1, i64 0, i64 0
  %87 = call i32 (i8*, ...) @printf(i8* getelementptr inbounds ([4 x i8], [4 x i8]* @.str.1, i64 0, i64 0), i8* %86)
  br label %7

88:                                               ; preds = %7
  ret void
}

declare dso_local i32 @__isoc99_scanf(i8*, ...) #1

; Function Attrs: nounwind readonly
declare dso_local i64 @strlen(i8*) #2

declare dso_local i32 @printf(i8*, ...) #1


!llvm.module.flags = !{!0}
!llvm.ident = !{!1}

!0 = !{i32 1, !"wchar_size", i32 4}
!1 = !{!"clang version 10.0.0-4ubuntu1 "}
